; Function Attrs: mustprogress uwtable
define void @_ZN3gmx38ModularSimulatorAlgorithmBuilderHelper34changeReferenceTemperatureCallbackEv(ptr dead_on_unwind noalias nocapture writable writeonly sret(%"class.std::function.726") align 8 %0, ptr nocapture noundef nonnull readonly align 8 dereferenceable(8) %1) local_unnamed_addr #3 align 2 personality ptr @__gxx_personality_v0 {
  %3 = alloca %"class.std::__cxx11::basic_string", align 8
  %4 = alloca %"class.std::allocator", align 1
  call void @_ZNSaIcEC1Ev(ptr noundef nonnull align 1 dereferenceable(1) %4) #25
  %5 = invoke noundef ptr @_ZNSt7__cxx1112basic_stringIcSt11char_traitsIcESaIcEE13_M_local_dataEv(ptr noundef nonnull align 8 dereferenceable(32) %3)
          to label %.noexc unwind label %18

.noexc:                                           ; preds = %2
  invoke void @_ZNSt7__cxx1112basic_stringIcSt11char_traitsIcESaIcEE12_Alloc_hiderC1EPcRKS3_(ptr noundef nonnull align 8 dereferenceable(8) %3, ptr noundef %5, ptr noundef nonnull align 1 dereferenceable(1) %4)
          to label %.noexc5 unwind label %18

.noexc5:                                          ; preds = %.noexc
  invoke void @_ZNSt7__cxx1112basic_stringIcSt11char_traitsIcESaIcEE12_M_constructIPKcEEvT_S8_St20forward_iterator_tag(ptr noundef nonnull align 8 dereferenceable(32) %3, ptr noundef nonnull @.str.63, ptr noundef nonnull getelementptr inbounds ([28 x i8], ptr @.str.63, i64 0, i64 27))
          to label %_ZNSt7__cxx1112basic_stringIcSt11char_traitsIcESaIcEEC2IS3_EEPKcRKS3_.exit unwind label %6

6:                                                ; preds = %.noexc5
  %7 = landingpad { ptr, i32 }
          cleanup
  call void @_ZNSaIcED2Ev(ptr noundef nonnull align 1 dereferenceable(1) %3) #25
  br label %.body

_ZNSt7__cxx1112basic_stringIcSt11char_traitsIcESaIcEEC2IS3_EEPKcRKS3_.exit: ; preds = %.noexc5
  %8 = load ptr, ptr %1, align 8
  %9 = invoke { ptr, i8 } @_ZN3gmx32ModularSimulatorAlgorithmBuilder14simulationDataINS_27ReferenceTemperatureManagerEEESt8optionalIPT_ERKNSt7__cxx1112basic_stringIcSt11char_traitsIcESaIcEEE(ptr noundef nonnull align 8 dereferenceable(712) %8, ptr noundef nonnull align 8 dereferenceable(32) %3)
          to label %_ZN3gmx38ModularSimulatorAlgorithmBuilderHelper14simulationDataINS_27ReferenceTemperatureManagerEEESt8optionalIPT_ERKNSt7__cxx1112basic_stringIcSt11char_traitsIcESaIcEEE.exit unwind label %20

_ZN3gmx38ModularSimulatorAlgorithmBuilderHelper14simulationDataINS_27ReferenceTemperatureManagerEEESt8optionalIPT_ERKNSt7__cxx1112basic_stringIcSt11char_traitsIcESaIcEEE.exit: ; preds = %_ZNSt7__cxx1112basic_stringIcSt11char_traitsIcESaIcEEC2IS3_EEPKcRKS3_.exit
  %10 = extractvalue { ptr, i8 } %9, 1
  %11 = trunc i8 %10 to i1
  br i1 %11, label %_ZNOSt8optionalIPN3gmx27ReferenceTemperatureManagerEE5valueEv.exit, label %12

12:                                               ; preds = %_ZN3gmx38ModularSimulatorAlgorithmBuilderHelper14simulationDataINS_27ReferenceTemperatureManagerEEESt8optionalIPT_ERKNSt7__cxx1112basic_stringIcSt11char_traitsIcESaIcEEE.exit
  invoke void @_ZSt27__throw_bad_optional_accessv() #29
          to label %.noexc7 unwind label %20

.noexc7:                                          ; preds = %12
  unreachable

_ZNOSt8optionalIPN3gmx27ReferenceTemperatureManagerEE5valueEv.exit: ; preds = %_ZN3gmx38ModularSimulatorAlgorithmBuilderHelper14simulationDataINS_27ReferenceTemperatureManagerEEESt8optionalIPT_ERKNSt7__cxx1112basic_stringIcSt11char_traitsIcESaIcEEE.exit
  %13 = extractvalue { ptr, i8 } %9, 0
  call void @_ZNSt7__cxx1112basic_stringIcSt11char_traitsIcESaIcEED1Ev(ptr noundef nonnull align 8 dereferenceable(32) %3) #25
  call void @_ZNSaIcED1Ev(ptr noundef nonnull align 1 dereferenceable(1) %4) #25
  %14 = getelementptr inbounds i8, ptr %0, i64 16
  %15 = getelementptr inbounds i8, ptr %0, i64 24
  %16 = getelementptr inbounds i8, ptr %0, i64 8
  store i64 0, ptr %16, align 8
  %17 = ptrtoint ptr %13 to i64
  store i64 %17, ptr %0, align 8
  store ptr @"_ZNSt17_Function_handlerIFvN3gmx8ArrayRefIKfEENS0_35ReferenceTemperatureChangeAlgorithmEEZNS0_38ModularSimulatorAlgorithmBuilderHelper34changeReferenceTemperatureCallbackEvE3$_0E9_M_invokeERKSt9_Any_dataOS3_OS4_", ptr %15, align 8
  store ptr @"_ZNSt17_Function_handlerIFvN3gmx8ArrayRefIKfEENS0_35ReferenceTemperatureChangeAlgorithmEEZNS0_38ModularSimulatorAlgorithmBuilderHelper34changeReferenceTemperatureCallbackEvE3$_0E10_M_managerERSt9_Any_dataRKS9_St18_Manager_operation", ptr %14, align 8
  ret void

18:                                               ; preds = %.noexc, %2
  %19 = landingpad { ptr, i32 }
          cleanup
  br label %.body

20:                                               ; preds = %12, %_ZNSt7__cxx1112basic_stringIcSt11char_traitsIcESaIcEEC2IS3_EEPKcRKS3_.exit
  %21 = landingpad { ptr, i32 }
          cleanup
  call void @_ZNSt7__cxx1112basic_stringIcSt11char_traitsIcESaIcEED1Ev(ptr noundef nonnull align 8 dereferenceable(32) %3) #25
  br label %.body

.body:                                            ; preds = %18, %6, %20
  %.pn = phi { ptr, i32 } [ %21, %20 ], [ %19, %18 ], [ %7, %6 ]
  call void @_ZNSaIcED1Ev(ptr noundef nonnull align 1 dereferenceable(1) %4) #25
  resume { ptr, i32 } %.pn
}